target datalayout = "e-m:e-p270:32:32-p271:32:32-p272:64:64-i64:64-i128:128-f80:128-n8:16:32:64-S128"
target triple = "x86_64-pc-linux-gnu"

%struct._dcerpc_info = type { ptr, i32, i64, i8, i8, i8, i32, i32, i32, i32, i32, i32, i32, i32, ptr, ptr, ptr, ptr, %struct.anon }
%struct.anon = type { i8, ptr, ptr, ptr, i8 }

@hf_netlogon_computer_name = internal global i32 0, align 4
@.str.252 = private unnamed_addr constant [14 x i8] c"Computer Name\00", align 1
@hf_netlogon_level16 = internal global i32 0, align 4
@hf_netlogon_validation_level = internal global i32 0, align 4
@hf_netlogon_extraflags = internal global i32 0, align 4
@ett_trust_flags = internal global i32 0, align 4
@.str.1144 = private unnamed_addr constant [18 x i8] c"LEVEL: LogonLevel\00", align 1
@.str.1310 = private unnamed_addr constant [12 x i8] c"LogonServer\00", align 1
@netlogon_dissect_EXTRA_FLAGS.extraflags = internal constant [5 x ptr] [ptr @hf_netlogon_extra_flags_root_forest, ptr @hf_netlogon_trust_flags_dc_firsthop, ptr @hf_netlogon_trust_flags_rodc_to_dc, ptr @hf_netlogon_trust_flags_rodc_ntlm, ptr null], align 16

; Function Attrs: null_pointer_is_valid sspstrong uwtable
define internal i32 @netlogon_dissect_EXTRA_FLAGS(ptr noundef %0, i32 noundef %1, ptr noundef %2, ptr noundef %3, ptr noundef %4, ptr noundef %5) #0 {
  %7 = alloca i32, align 4
  %8 = alloca ptr, align 8
  %9 = alloca i32, align 4
  %10 = alloca ptr, align 8
  %11 = alloca ptr, align 8
  %12 = alloca ptr, align 8
  %13 = alloca ptr, align 8
  %14 = alloca i32, align 4
  %15 = alloca i32, align 4
  store ptr %0, ptr %8, align 8
  store i32 %1, ptr %9, align 4
  store ptr %2, ptr %10, align 8
  store ptr %3, ptr %11, align 8
  store ptr %4, ptr %12, align 8
  store ptr %5, ptr %13, align 8
  call void @llvm.lifetime.start.p0(i64 4, ptr %14) #15
  %16 = load ptr, ptr %12, align 8
  %17 = getelementptr inbounds nuw %struct._dcerpc_info, ptr %16, i32 0, i32 4
  %18 = load i8, ptr %17, align 1, !range !6, !noundef !7
  %19 = trunc i8 %18 to i1
  br i1 %19, label %20, label %22

20:                                               ; preds = %6
  %21 = load i32, ptr %9, align 4
  store i32 %21, ptr %7, align 4
  store i32 1, ptr %15, align 4
  br label %39

22:                                               ; preds = %6
  %23 = load ptr, ptr %8, align 8
  %24 = load i32, ptr %9, align 4
  %25 = load ptr, ptr %10, align 8
  %26 = load ptr, ptr %12, align 8
  %27 = load ptr, ptr %13, align 8
  %28 = call i32 @dissect_ndr_uint32(ptr noundef %23, i32 noundef %24, ptr noundef %25, ptr noundef null, ptr noundef %26, ptr noundef %27, i32 noundef -1, ptr noundef %14)
  store i32 %28, ptr %9, align 4
  %29 = load ptr, ptr %11, align 8
  %30 = load ptr, ptr %8, align 8
  %31 = load i32, ptr %9, align 4
  %32 = sub i32 %31, 4
  %33 = load i32, ptr @hf_netlogon_extraflags, align 4
  %34 = load i32, ptr @ett_trust_flags, align 4
  %35 = load i32, ptr %14, align 4
  %36 = zext i32 %35 to i64
  %37 = call ptr @proto_tree_add_bitmask_value_with_flags(ptr noundef %29, ptr noundef %30, i32 noundef %32, i32 noundef %33, i32 noundef %34, ptr noundef @netlogon_dissect_EXTRA_FLAGS.extraflags, i64 noundef %36, i32 noundef 1)
  %38 = load i32, ptr %9, align 4
  store i32 %38, ptr %7, align 4
  store i32 1, ptr %15, align 4
  br label %39

39:                                               ; preds = %22, %20
  call void @llvm.lifetime.end.p0(i64 4, ptr %14) #15
  %40 = load i32, ptr %7, align 4
  ret i32 %40
}

; Function Attrs: null_pointer_is_valid sspstrong uwtable
define internal i32 @netlogon_dissect_netrlogonsamlogonex_rqst(ptr noundef %0, i32 noundef %1, ptr noundef %2, ptr noundef %3, ptr noundef %4, ptr noundef %5) #0 {
  %7 = alloca ptr, align 8
  %8 = alloca i32, align 4
  %9 = alloca ptr, align 8
  %10 = alloca ptr, align 8
  %11 = alloca ptr, align 8
  %12 = alloca ptr, align 8
  store ptr %0, ptr %7, align 8
  store i32 %1, ptr %8, align 4
  store ptr %2, ptr %9, align 8
  store ptr %3, ptr %10, align 8
  store ptr %4, ptr %11, align 8
  store ptr %5, ptr %12, align 8
  %13 = load ptr, ptr %7, align 8
  %14 = load i32, ptr %8, align 4
  %15 = load ptr, ptr %9, align 8
  %16 = load ptr, ptr %10, align 8
  %17 = load ptr, ptr %11, align 8
  %18 = load ptr, ptr %12, align 8
  %19 = load i32, ptr @hf_netlogon_computer_name, align 4
  %20 = call i32 @dissect_ndr_str_pointer_item(ptr noundef %13, i32 noundef %14, ptr noundef %15, ptr noundef %16, ptr noundef %17, ptr noundef %18, i32 noundef 2, ptr noundef @.str.1310, i32 noundef %19, i32 noundef 0)
  store i32 %20, ptr %8, align 4
  %21 = load ptr, ptr %7, align 8
  %22 = load i32, ptr %8, align 4
  %23 = load ptr, ptr %9, align 8
  %24 = load ptr, ptr %10, align 8
  %25 = load ptr, ptr %11, align 8
  %26 = load ptr, ptr %12, align 8
  %27 = load i32, ptr @hf_netlogon_computer_name, align 4
  %28 = call i32 @dissect_ndr_str_pointer_item(ptr noundef %21, i32 noundef %22, ptr noundef %23, ptr noundef %24, ptr noundef %25, ptr noundef %26, i32 noundef 2, ptr noundef @.str.252, i32 noundef %27, i32 noundef 0)
  store i32 %28, ptr %8, align 4
  %29 = load ptr, ptr %7, align 8
  %30 = load i32, ptr %8, align 4
  %31 = load ptr, ptr %9, align 8
  %32 = load ptr, ptr %10, align 8
  %33 = load ptr, ptr %11, align 8
  %34 = load ptr, ptr %12, align 8
  %35 = load i32, ptr @hf_netlogon_level16, align 4
  %36 = call i32 @dissect_ndr_uint16(ptr noundef %29, i32 noundef %30, ptr noundef %31, ptr noundef %32, ptr noundef %33, ptr noundef %34, i32 noundef %35, ptr noundef null)
  store i32 %36, ptr %8, align 4
  %37 = load ptr, ptr %7, align 8
  %38 = load i32, ptr %8, align 4
  %39 = load ptr, ptr %9, align 8
  %40 = load ptr, ptr %10, align 8
  %41 = load ptr, ptr %11, align 8
  %42 = load ptr, ptr %12, align 8
  %43 = call i32 @dissect_ndr_pointer(ptr noundef %37, i32 noundef %38, ptr noundef %39, ptr noundef %40, ptr noundef %41, ptr noundef %42, ptr noundef @netlogon_dissect_LEVEL, i32 noundef 1, ptr noundef @.str.1144, i32 noundef -1)
  store i32 %43, ptr %8, align 4
  %44 = load ptr, ptr %7, align 8
  %45 = load i32, ptr %8, align 4
  %46 = load ptr, ptr %9, align 8
  %47 = load ptr, ptr %10, align 8
  %48 = load ptr, ptr %11, align 8
  %49 = load ptr, ptr %12, align 8
  %50 = load i32, ptr @hf_netlogon_validation_level, align 4
  %51 = call i32 @dissect_ndr_uint16(ptr noundef %44, i32 noundef %45, ptr noundef %46, ptr noundef %47, ptr noundef %48, ptr noundef %49, i32 noundef %50, ptr noundef null)
  store i32 %51, ptr %8, align 4
  %52 = load ptr, ptr %7, align 8
  %53 = load i32, ptr %8, align 4
  %54 = load ptr, ptr %9, align 8
  %55 = load ptr, ptr %10, align 8
  %56 = load ptr, ptr %11, align 8
  %57 = load ptr, ptr %12, align 8
  %58 = call i32 @netlogon_dissect_EXTRA_FLAGS(ptr noundef %52, i32 noundef %53, ptr noundef %54, ptr noundef %55, ptr noundef %56, ptr noundef %57)
  store i32 %58, ptr %8, align 4
  %59 = load i32, ptr %8, align 4
  ret i32 %59
}