; Function Attrs: null_pointer_is_valid sspstrong uwtable
define internal i32 @netlogon_dissect_netrlogonsamlogonex_rqst(ptr noundef %0, i32 noundef %1, ptr noundef %2, ptr noundef %3, ptr noundef %4, ptr noundef %5) #0 {
  %7 = alloca i32, align 4
  %8 = load i32, ptr @hf_netlogon_computer_name, align 4
  %9 = tail call i32 @dissect_ndr_str_pointer_item(ptr noundef %0, i32 noundef %1, ptr noundef %2, ptr noundef %3, ptr noundef %4, ptr noundef %5, i32 noundef 2, ptr noundef nonnull @.str.1310, i32 noundef %8, i32 noundef 0)
  %10 = load i32, ptr @hf_netlogon_computer_name, align 4
  %11 = tail call i32 @dissect_ndr_str_pointer_item(ptr noundef %0, i32 noundef %9, ptr noundef %2, ptr noundef %3, ptr noundef %4, ptr noundef %5, i32 noundef 2, ptr noundef nonnull @.str.252, i32 noundef %10, i32 noundef 0)
  %12 = load i32, ptr @hf_netlogon_level16, align 4
  %13 = tail call i32 @dissect_ndr_uint16(ptr noundef %0, i32 noundef %11, ptr noundef %2, ptr noundef %3, ptr noundef %4, ptr noundef %5, i32 noundef %12, ptr noundef null)
  %14 = tail call i32 @dissect_ndr_pointer(ptr noundef %0, i32 noundef %13, ptr noundef %2, ptr noundef %3, ptr noundef %4, ptr noundef %5, ptr noundef nonnull @netlogon_dissect_LEVEL, i32 noundef 1, ptr noundef nonnull @.str.1144, i32 noundef -1)
  %15 = load i32, ptr @hf_netlogon_validation_level, align 4
  %16 = tail call i32 @dissect_ndr_uint16(ptr noundef %0, i32 noundef %14, ptr noundef %2, ptr noundef %3, ptr noundef %4, ptr noundef %5, i32 noundef %15, ptr noundef null)
  call void @llvm.lifetime.start.p0(i64 4, ptr nonnull %7) #15
  %17 = getelementptr inbounds nuw i8, ptr %4, i64 25
  %18 = load i8, ptr %17, align 1, !range !6, !noundef !7
  %19 = trunc nuw i8 %18 to i1
  br i1 %19, label %netlogon_dissect_EXTRA_FLAGS.exit, label %20

20:                                               ; preds = %6
  %21 = call i32 @dissect_ndr_uint32(ptr noundef %0, i32 noundef %16, ptr noundef %2, ptr noundef null, ptr noundef %4, ptr noundef %5, i32 noundef -1, ptr noundef nonnull %7)
  %22 = add i32 %21, -4
  %23 = load i32, ptr @hf_netlogon_extraflags, align 4
  %24 = load i32, ptr @ett_trust_flags, align 4
  %25 = load i32, ptr %7, align 4
  %26 = zext i32 %25 to i64
  %27 = call ptr @proto_tree_add_bitmask_value_with_flags(ptr noundef %3, ptr noundef %0, i32 noundef %22, i32 noundef %23, i32 noundef %24, ptr noundef nonnull @netlogon_dissect_EXTRA_FLAGS.extraflags, i64 noundef %26, i32 noundef 1)
  br label %netlogon_dissect_EXTRA_FLAGS.exit

netlogon_dissect_EXTRA_FLAGS.exit:                ; preds = %6, %20
  %.0.i = phi i32 [ %21, %20 ], [ %16, %6 ]
  call void @llvm.lifetime.end.p0(i64 4, ptr nonnull %7) #15
  ret i32 %.0.i
}